target datalayout = "e-m:e-p270:32:32-p271:32:32-p272:64:64-i64:64-i128:128-f80:128-n8:16:32:64-S128"
target triple = "x86_64-pc-linux-gnu"

%struct._fc_data = type { i32, i8 }

; Function Attrs: nounwind uwtable
define internal i32 @dissect_fc_wtap(ptr noundef %0, ptr noundef %1, ptr noundef %2, ptr noundef %3) #0 {
  %5 = alloca ptr, align 8
  %6 = alloca ptr, align 8
  %7 = alloca ptr, align 8
  %8 = alloca ptr, align 8
  %9 = alloca %struct._fc_data, align 4
  store ptr %0, ptr %5, align 8
  store ptr %1, ptr %6, align 8
  store ptr %2, ptr %7, align 8
  store ptr %3, ptr %8, align 8
  %10 = getelementptr inbounds %struct._fc_data, ptr %9, i32 0, i32 0
  store i32 0, ptr %10, align 4
  %11 = getelementptr inbounds %struct._fc_data, ptr %9, i32 0, i32 1
  store i8 0, ptr %11, align 4
  %12 = load ptr, ptr %5, align 8
  %13 = load ptr, ptr %6, align 8
  %14 = load ptr, ptr %7, align 8
  call void @dissect_fc_helper(ptr noundef %12, ptr noundef %13, ptr noundef %14, i32 noundef 0, ptr noundef %9)
  %15 = load ptr, ptr %5, align 8
  %16 = call i32 @tvb_captured_length(ptr noundef %15)
  ret i32 %16
}