; Function Attrs: nounwind uwtable
define internal i32 @dissect_fc_wtap(ptr noundef %0, ptr noundef %1, ptr noundef %2, ptr readnone captures(none) %3) #0 {
  %5 = alloca %struct._fc_data, align 4
  store i32 0, ptr %5, align 4
  %6 = getelementptr inbounds nuw i8, ptr %5, i64 4
  store i8 0, ptr %6, align 4
  call fastcc void @dissect_fc_helper(ptr noundef %0, ptr noundef %1, ptr noundef %2, i32 noundef 0, ptr noundef %5)
  %7 = tail call i32 @tvb_captured_length(ptr noundef %0) #4
  ret i32 %7
}